target datalayout = "e-m:e-p270:32:32-p271:32:32-p272:64:64-i64:64-i128:128-f80:128-n8:16:32:64-S128"
target triple = "x86_64-pc-linux-gnu"

%struct.SlruCtlData = type { ptr, i16, i8, i32, ptr, [64 x i8] }
%struct.mxtruncinfo = type { i64 }

; Function Attrs: nounwind uwtable
define internal zeroext i1 @SlruScanDirCbFindEarliest(ptr noundef %0, ptr noundef %1, i64 noundef %2, ptr noundef %3) #0 {
  %5 = alloca ptr, align 8
  %6 = alloca ptr, align 8
  %7 = alloca i64, align 8
  %8 = alloca ptr, align 8
  %9 = alloca ptr, align 8
  store ptr %0, ptr %5, align 8
  store ptr %1, ptr %6, align 8
  store i64 %2, ptr %7, align 8
  store ptr %3, ptr %8, align 8
  call void @llvm.lifetime.start.p0(i64 8, ptr %9) #9
  %10 = load ptr, ptr %8, align 8
  store ptr %10, ptr %9, align 8
  %11 = load ptr, ptr %9, align 8
  %12 = getelementptr inbounds nuw %struct.mxtruncinfo, ptr %11, i32 0, i32 0
  %13 = load i64, ptr %12, align 8
  %14 = icmp eq i64 %13, -1
  br i1 %14, label %24, label %15

15:                                               ; preds = %4
  %16 = load ptr, ptr %5, align 8
  %17 = getelementptr inbounds nuw %struct.SlruCtlData, ptr %16, i32 0, i32 4
  %18 = load ptr, ptr %17, align 8
  %19 = load i64, ptr %7, align 8
  %20 = load ptr, ptr %9, align 8
  %21 = getelementptr inbounds nuw %struct.mxtruncinfo, ptr %20, i32 0, i32 0
  %22 = load i64, ptr %21, align 8
  %23 = call zeroext i1 %18(i64 noundef %19, i64 noundef %22)
  br i1 %23, label %24, label %28

24:                                               ; preds = %15, %4
  %25 = load i64, ptr %7, align 8
  %26 = load ptr, ptr %9, align 8
  %27 = getelementptr inbounds nuw %struct.mxtruncinfo, ptr %26, i32 0, i32 0
  store i64 %25, ptr %27, align 8
  br label %28

28:                                               ; preds = %24, %15
  call void @llvm.lifetime.end.p0(i64 8, ptr %9) #9
  ret i1 false
}