; Function Attrs: nounwind uwtable
define internal noundef zeroext i1 @SlruScanDirCbFindEarliest(ptr noundef readonly captures(none) %0, ptr readnone captures(none) %1, i64 noundef %2, ptr noundef captures(none) %3) #0 {
  %5 = load i64, ptr %3, align 8
  %6 = icmp eq i64 %5, -1
  br i1 %6, label %11, label %7

7:                                                ; preds = %4
  %8 = getelementptr inbounds nuw i8, ptr %0, i64 16
  %9 = load ptr, ptr %8, align 8
  %10 = tail call zeroext i1 %9(i64 noundef %2, i64 noundef %5) #13
  br i1 %10, label %11, label %12

11:                                               ; preds = %7, %4
  store i64 %2, ptr %3, align 8
  br label %12

12:                                               ; preds = %11, %7
  ret i1 false
}